; Function Attrs: mustprogress nounwind uwtable
define internal void @"_ZN4absl12lts_2024072222internal_any_invocable22LocalManagerNontrivialIZN17grpc_event_engine12experimental12AresResolver18CheckSocketsLockedEvE3$_1EEvNS1_14FunctionToCallEPNS1_15TypeErasedStateES9_"(i1 noundef zeroext %0, ptr noundef captures(none) %1, ptr noundef writeonly captures(none) %2) #11 personality ptr @__gxx_personality_v0 {
  br i1 %0, label %8, label %.thread

.thread:                                          ; preds = %3
  store ptr null, ptr %2, align 8, !tbaa !221
  %4 = load ptr, ptr %1, align 8, !tbaa !221
  store ptr %4, ptr %2, align 8, !tbaa !221
  store ptr null, ptr %1, align 8, !tbaa !221
  %5 = getelementptr inbounds nuw i8, ptr %2, i64 8
  %6 = getelementptr inbounds nuw i8, ptr %1, i64 8
  %7 = load ptr, ptr %6, align 8, !tbaa !229
  store ptr %7, ptr %5, align 8, !tbaa !229
  br label %"_ZZN17grpc_event_engine12experimental12AresResolver18CheckSocketsLockedEvEN3$_1D2Ev.exit"

8:                                                ; preds = %3
  %.val.pr = load ptr, ptr %1, align 8, !tbaa !221
  %.not.i.i = icmp eq ptr %.val.pr, null
  br i1 %.not.i.i, label %"_ZZN17grpc_event_engine12experimental12AresResolver18CheckSocketsLockedEvEN3$_1D2Ev.exit", label %9

9:                                                ; preds = %8
  %10 = getelementptr inbounds nuw i8, ptr %.val.pr, i64 8
  %11 = atomicrmw sub ptr %10, i64 1 acq_rel, align 8
  %12 = icmp eq i64 %11, 1
  br i1 %12, label %13, label %"_ZZN17grpc_event_engine12experimental12AresResolver18CheckSocketsLockedEvEN3$_1D2Ev.exit", !prof !20

13:                                               ; preds = %9
  %14 = load ptr, ptr %.val.pr, align 8, !tbaa !27
  %15 = getelementptr inbounds nuw i8, ptr %14, i64 16
  %16 = load ptr, ptr %15, align 8
  tail call void %16(ptr noundef nonnull align 8 dereferenceable(16) %.val.pr) #34
  br label %"_ZZN17grpc_event_engine12experimental12AresResolver18CheckSocketsLockedEvEN3$_1D2Ev.exit"

"_ZZN17grpc_event_engine12experimental12AresResolver18CheckSocketsLockedEvEN3$_1D2Ev.exit": ; preds = %.thread, %8, %9, %13
  ret void
}